target datalayout = "e-m:e-p270:32:32-p271:32:32-p272:64:64-i64:64-i128:128-f80:128-n8:16:32:64-S128"
target triple = "x86_64-pc-linux-gnu"

%struct.ws_mempbrk_pattern = type { [256 x i8], i8, <2 x i64> }

@sdp_transport_reqs = internal global ptr null, align 8
@sdp_transport_rsps = internal global ptr null, align 8
@.str.126 = private unnamed_addr constant [15 x i8] c"Key Management\00", align 1
@.str.195 = private unnamed_addr constant [29 x i8] c"Session Description Protocol\00", align 1
@.str.196 = private unnamed_addr constant [4 x i8] c"SDP\00", align 1
@.str.197 = private unnamed_addr constant [4 x i8] c"sdp\00", align 1
@proto_sdp = internal global i32 0, align 4
@.str.198 = private unnamed_addr constant [9 x i8] c"key_mgmt\00", align 1
@key_mgmt_dissector_table = internal global ptr null, align 8
@.str.199 = private unnamed_addr constant [23 x i8] c"establish_conversation\00", align 1
@.str.200 = private unnamed_addr constant [29 x i8] c"Establish Media Conversation\00", align 1
@.str.201 = private unnamed_addr constant [103 x i8] c"Specifies that RTP/RTCP/T.38/MSRP/etc streams are decoded based upon port numbers found in SDP payload\00", align 1
@global_sdp_establish_conversation = internal global i8 1, align 1
@sdp_handle = internal global ptr null, align 8
@sdp_tap = internal global i32 0, align 4
@pbrk_digits = internal global %struct.ws_mempbrk_pattern zeroinitializer, align 16
@.str.202 = private unnamed_addr constant [11 x i8] c"0123456789\00", align 1
@pbrk_alpha = internal global %struct.ws_mempbrk_pattern zeroinitializer, align 16
@.str.203 = private unnamed_addr constant [27 x i8] c"ABCDEFGHIJKLMNOPQRSTUVWXYZ\00", align 1

; Function Attrs: null_pointer_is_valid sspstrong uwtable
define hidden void @proto_register_sdp() #0 {
  %1 = alloca ptr, align 8
  %2 = alloca ptr, align 8
  call void @llvm.lifetime.start.p0(i64 8, ptr %1) #15
  call void @llvm.lifetime.start.p0(i64 8, ptr %2) #15
  %3 = call i32 @proto_register_protocol(ptr noundef @.str.195, ptr noundef @.str.196, ptr noundef @.str.197)
  store i32 %3, ptr @proto_sdp, align 4
  %4 = load i32, ptr @proto_sdp, align 4
  call void @proto_register_field_array(i32 noundef %4, ptr noundef @proto_register_sdp.hf, i32 noundef 83)
  call void @proto_register_subtree_array(ptr noundef @proto_register_sdp.ett, i32 noundef 14)
  %5 = load i32, ptr @proto_sdp, align 4
  %6 = call ptr @expert_register_protocol(i32 noundef %5)
  store ptr %6, ptr %2, align 8
  %7 = load ptr, ptr %2, align 8
  call void @expert_register_field_array(ptr noundef %7, ptr noundef @proto_register_sdp.ei, i32 noundef 11)
  %8 = load i32, ptr @proto_sdp, align 4
  %9 = call ptr @register_dissector_table(ptr noundef @.str.198, ptr noundef @.str.126, i32 noundef %8, i32 noundef 26, i32 noundef 0)
  store ptr %9, ptr @key_mgmt_dissector_table, align 8
  %10 = load i32, ptr @proto_sdp, align 4
  %11 = call ptr @prefs_register_protocol(i32 noundef %10, ptr noundef null)
  store ptr %11, ptr %1, align 8
  %12 = load ptr, ptr %1, align 8
  call void @prefs_register_bool_preference(ptr noundef %12, ptr noundef @.str.199, ptr noundef @.str.200, ptr noundef @.str.201, ptr noundef @global_sdp_establish_conversation)
  %13 = call ptr @wmem_epan_scope()
  %14 = call ptr @wmem_file_scope()
  %15 = call noalias ptr @wmem_tree_new_autoreset(ptr noundef %13, ptr noundef %14)
  store ptr %15, ptr @sdp_transport_reqs, align 8
  %16 = call ptr @wmem_epan_scope()
  %17 = call ptr @wmem_file_scope()
  %18 = call noalias ptr @wmem_tree_new_autoreset(ptr noundef %16, ptr noundef %17)
  store ptr %18, ptr @sdp_transport_rsps, align 8
  %19 = load i32, ptr @proto_sdp, align 4
  %20 = call ptr @register_dissector(ptr noundef @.str.197, ptr noundef @dissect_sdp, i32 noundef %19)
  store ptr %20, ptr @sdp_handle, align 8
  %21 = call i32 @register_tap(ptr noundef @.str.197)
  store i32 %21, ptr @sdp_tap, align 4
  call void @ws_mempbrk_compile(ptr noundef @pbrk_digits, ptr noundef @.str.202)
  call void @ws_mempbrk_compile(ptr noundef @pbrk_alpha, ptr noundef @.str.203)
  call void @llvm.lifetime.end.p0(i64 8, ptr %2) #15
  call void @llvm.lifetime.end.p0(i64 8, ptr %1) #15
  ret void
}