; Function Attrs: null_pointer_is_valid sspstrong uwtable
define hidden void @proto_register_sdp() local_unnamed_addr #0 {
  %1 = tail call i32 @proto_register_protocol(ptr noundef nonnull @.str.195, ptr noundef nonnull @.str.196, ptr noundef nonnull @.str.197)
  store i32 %1, ptr @proto_sdp, align 4
  tail call void @proto_register_field_array(i32 noundef %1, ptr noundef nonnull @proto_register_sdp.hf, i32 noundef 83)
  tail call void @proto_register_subtree_array(ptr noundef nonnull @proto_register_sdp.ett, i32 noundef 14)
  %2 = load i32, ptr @proto_sdp, align 4
  %3 = tail call ptr @expert_register_protocol(i32 noundef %2)
  tail call void @expert_register_field_array(ptr noundef %3, ptr noundef nonnull @proto_register_sdp.ei, i32 noundef 11)
  %4 = load i32, ptr @proto_sdp, align 4
  %5 = tail call ptr @register_dissector_table(ptr noundef nonnull @.str.198, ptr noundef nonnull @.str.126, i32 noundef %4, i32 noundef 26, i32 noundef 0)
  store ptr %5, ptr @key_mgmt_dissector_table, align 8
  %6 = load i32, ptr @proto_sdp, align 4
  %7 = tail call ptr @prefs_register_protocol(i32 noundef %6, ptr noundef null)
  tail call void @prefs_register_bool_preference(ptr noundef %7, ptr noundef nonnull @.str.199, ptr noundef nonnull @.str.200, ptr noundef nonnull @.str.201, ptr noundef nonnull @global_sdp_establish_conversation)
  %8 = tail call ptr @wmem_epan_scope()
  %9 = tail call ptr @wmem_file_scope()
  %10 = tail call noalias ptr @wmem_tree_new_autoreset(ptr noundef %8, ptr noundef %9)
  store ptr %10, ptr @sdp_transport_reqs, align 8
  %11 = tail call ptr @wmem_epan_scope()
  %12 = tail call ptr @wmem_file_scope()
  %13 = tail call noalias ptr @wmem_tree_new_autoreset(ptr noundef %11, ptr noundef %12)
  store ptr %13, ptr @sdp_transport_rsps, align 8
  %14 = load i32, ptr @proto_sdp, align 4
  %15 = tail call ptr @register_dissector(ptr noundef nonnull @.str.197, ptr noundef nonnull @dissect_sdp, i32 noundef %14)
  store ptr %15, ptr @sdp_handle, align 8
  %16 = tail call i32 @register_tap(ptr noundef nonnull @.str.197)
  store i32 %16, ptr @sdp_tap, align 4
  tail call void @ws_mempbrk_compile(ptr noundef nonnull @pbrk_digits, ptr noundef nonnull @.str.202)
  tail call void @ws_mempbrk_compile(ptr noundef nonnull @pbrk_alpha, ptr noundef nonnull @.str.203)
  ret void
}